target datalayout = "e-m:e-p270:32:32-p271:32:32-p272:64:64-i64:64-i128:128-f80:128-n8:16:32:64-S128"
target triple = "x86_64-pc-linux-gnu"

%struct.anon.1 = type { i32, ptr }

@.str.4 = private unnamed_addr constant [3 x i8] c"%s\00", align 1
@.str.5 = private unnamed_addr constant [4 x i8] c"%#x\00", align 1

; Function Attrs: nounwind uwtable
define hidden i32 @cdf_print_property_name(ptr noundef %0, i64 noundef %1, i32 noundef %2) #0 {
  %4 = alloca i32, align 4
  %5 = alloca ptr, align 8
  %6 = alloca i64, align 8
  %7 = alloca i32, align 4
  %8 = alloca i64, align 8
  %9 = alloca i32, align 4
  store ptr %0, ptr %5, align 8, !tbaa !9
  store i64 %1, ptr %6, align 8, !tbaa !14
  store i32 %2, ptr %7, align 4, !tbaa !12
  call void @llvm.lifetime.start.p0(i64 8, ptr %8) #13
  store i64 0, ptr %8, align 8, !tbaa !14
  br label %10

10:                                               ; preds = %29, %3
  %11 = load i64, ptr %8, align 8, !tbaa !14
  %12 = icmp ult i64 %11, 20
  br i1 %12, label %13, label %32

13:                                               ; preds = %10
  %14 = load i64, ptr %8, align 8, !tbaa !14
  %15 = getelementptr inbounds nuw [20 x %struct.anon.1], ptr @vn, i64 0, i64 %14
  %16 = getelementptr inbounds nuw %struct.anon.1, ptr %15, i32 0, i32 0
  %17 = load i32, ptr %16, align 16, !tbaa !85
  %18 = load i32, ptr %7, align 4, !tbaa !12
  %19 = icmp eq i32 %17, %18
  br i1 %19, label %20, label %28

20:                                               ; preds = %13
  %21 = load ptr, ptr %5, align 8, !tbaa !9
  %22 = load i64, ptr %6, align 8, !tbaa !14
  %23 = load i64, ptr %8, align 8, !tbaa !14
  %24 = getelementptr inbounds nuw [20 x %struct.anon.1], ptr @vn, i64 0, i64 %23
  %25 = getelementptr inbounds nuw %struct.anon.1, ptr %24, i32 0, i32 1
  %26 = load ptr, ptr %25, align 8, !tbaa !87
  %27 = call i32 (ptr, i64, ptr, ...) @ap_php_snprintf(ptr noundef %21, i64 noundef %22, ptr noundef @.str.4, ptr noundef %26)
  store i32 %27, ptr %4, align 4
  store i32 1, ptr %9, align 4
  br label %37

28:                                               ; preds = %13
  br label %29

29:                                               ; preds = %28
  %30 = load i64, ptr %8, align 8, !tbaa !14
  %31 = add i64 %30, 1
  store i64 %31, ptr %8, align 8, !tbaa !14
  br label %10

32:                                               ; preds = %10
  %33 = load ptr, ptr %5, align 8, !tbaa !9
  %34 = load i64, ptr %6, align 8, !tbaa !14
  %35 = load i32, ptr %7, align 4, !tbaa !12
  %36 = call i32 (ptr, i64, ptr, ...) @ap_php_snprintf(ptr noundef %33, i64 noundef %34, ptr noundef @.str.5, i32 noundef %35)
  store i32 %36, ptr %4, align 4
  store i32 1, ptr %9, align 4
  br label %37

37:                                               ; preds = %32, %20
  call void @llvm.lifetime.end.p0(i64 8, ptr %8) #13
  %38 = load i32, ptr %4, align 4
  ret i32 %38
}