; Function Attrs: nounwind uwtable
define hidden i32 @cdf_print_property_name(ptr noundef %0, i64 noundef %1, i32 noundef %2) local_unnamed_addr #7 {
  br label %6

4:                                                ; preds = %6
  %5 = add nuw nsw i64 %.011, 1
  %exitcond.not = icmp eq i64 %5, 20
  br i1 %exitcond.not, label %14, label %6

6:                                                ; preds = %3, %4
  %.011 = phi i64 [ 0, %3 ], [ %5, %4 ]
  %7 = getelementptr inbounds nuw [20 x %struct.anon.1], ptr @vn, i64 0, i64 %.011
  %8 = load i32, ptr %7, align 16, !tbaa !67
  %9 = icmp eq i32 %8, %2
  br i1 %9, label %10, label %4

10:                                               ; preds = %6
  %11 = getelementptr inbounds nuw i8, ptr %7, i64 8
  %12 = load ptr, ptr %11, align 8, !tbaa !69
  %13 = tail call i32 (ptr, i64, ptr, ...) @ap_php_snprintf(ptr noundef %0, i64 noundef %1, ptr noundef nonnull @.str.4, ptr noundef %12) #21
  br label %16

14:                                               ; preds = %4
  %15 = tail call i32 (ptr, i64, ptr, ...) @ap_php_snprintf(ptr noundef %0, i64 noundef %1, ptr noundef nonnull @.str.5, i32 noundef %2) #21
  br label %16

16:                                               ; preds = %14, %10
  %.010 = phi i32 [ %13, %10 ], [ %15, %14 ]
  ret i32 %.010
}